target datalayout = "e-m:e-p270:32:32-p271:32:32-p272:64:64-i64:64-i128:128-f80:128-n8:16:32:64-S128"
target triple = "x86_64-pc-linux-gnu"

; Function Attrs: nounwind uwtable
define dso_local zeroext i1 @SDLTest_DrawCharacter(ptr noundef %0, float noundef %1, float noundef %2, i32 noundef %3) #0 {
  %5 = alloca ptr, align 8
  %6 = alloca float, align 4
  %7 = alloca float, align 4
  %8 = alloca i32, align 4
  %9 = alloca [5 x i8], align 1
  %10 = alloca ptr, align 8
  store ptr %0, ptr %5, align 8
  store float %1, ptr %6, align 4
  store float %2, ptr %7, align 4
  store i32 %3, ptr %8, align 4
  call void @llvm.lifetime.start.p0(i64 5, ptr %9) #7
  call void @llvm.lifetime.start.p0(i64 8, ptr %10) #7
  %11 = load i32, ptr %8, align 4
  %12 = getelementptr inbounds [5 x i8], ptr %9, i64 0, i64 0
  %13 = call ptr @SDL_UCS4ToUTF8(i32 noundef %11, ptr noundef %12)
  store ptr %13, ptr %10, align 8
  %14 = load ptr, ptr %10, align 8
  store i8 0, ptr %14, align 1
  %15 = load ptr, ptr %5, align 8
  %16 = load float, ptr %6, align 4
  %17 = load float, ptr %7, align 4
  %18 = getelementptr inbounds [5 x i8], ptr %9, i64 0, i64 0
  %19 = call zeroext i1 @SDL_RenderDebugText(ptr noundef %15, float noundef %16, float noundef %17, ptr noundef %18)
  call void @llvm.lifetime.end.p0(i64 8, ptr %10) #7
  call void @llvm.lifetime.end.p0(i64 5, ptr %9) #7
  ret i1 %19
}