; Function Attrs: nounwind uwtable
define dso_local zeroext i1 @SDLTest_DrawCharacter(ptr noundef %0, float noundef %1, float noundef %2, i32 noundef %3) local_unnamed_addr #0 {
  %5 = alloca [5 x i8], align 1
  call void @llvm.lifetime.start.p0(i64 5, ptr nonnull %5) #8
  %6 = call ptr @SDL_UCS4ToUTF8(i32 noundef %3, ptr noundef nonnull %5) #8
  store i8 0, ptr %6, align 1
  %7 = call zeroext i1 @SDL_RenderDebugText(ptr noundef %0, float noundef %1, float noundef %2, ptr noundef nonnull %5) #8
  call void @llvm.lifetime.end.p0(i64 5, ptr nonnull %5) #8
  ret i1 %7
}